; Function Attrs: nounwind uwtable
define internal range(i32 -2147483648, 1) i32 @config_output(ptr noundef captures(none) %0) #0 {
  %2 = load ptr, ptr %0, align 8, !tbaa !106
  %3 = getelementptr inbounds nuw i8, ptr %2, i64 72
  %4 = load ptr, ptr %3, align 8, !tbaa !4
  %5 = getelementptr inbounds nuw i8, ptr %2, i64 32
  %6 = load ptr, ptr %5, align 8, !tbaa !59
  %7 = load ptr, ptr %6, align 8, !tbaa !60
  %8 = getelementptr inbounds nuw i8, ptr %4, i64 8
  %9 = tail call i32 @ff_framesync_init_dualinput(ptr noundef nonnull %8, ptr noundef %2) #14
  %10 = icmp slt i32 %9, 0
  br i1 %10, label %av_cmp_q.exit44.thread52, label %11

11:                                               ; preds = %1
  %12 = getelementptr inbounds nuw i8, ptr %7, i64 40
  %13 = load i32, ptr %12, align 8, !tbaa !62
  %14 = getelementptr inbounds nuw i8, ptr %0, i64 40
  store i32 %13, ptr %14, align 8, !tbaa !62
  %15 = getelementptr inbounds nuw i8, ptr %7, i64 44
  %16 = load i32, ptr %15, align 4, !tbaa !63
  %17 = getelementptr inbounds nuw i8, ptr %0, i64 44
  store i32 %16, ptr %17, align 4, !tbaa !63
  %18 = getelementptr inbounds nuw i8, ptr %0, i64 96
  %19 = getelementptr inbounds nuw i8, ptr %7, i64 96
  %20 = load i64, ptr %19, align 8
  store i64 %20, ptr %18, align 8
  %21 = getelementptr inbounds nuw i8, ptr %0, i64 48
  %22 = getelementptr inbounds nuw i8, ptr %7, i64 48
  %23 = load i64, ptr %22, align 8
  store i64 %23, ptr %21, align 8
  %24 = getelementptr inbounds nuw i8, ptr %0, i64 264
  %25 = getelementptr inbounds nuw i8, ptr %7, i64 264
  %26 = load i64, ptr %25, align 8
  store i64 %26, ptr %24, align 8
  %27 = tail call i32 @ff_framesync_configure(ptr noundef nonnull %8) #14
  %28 = icmp slt i32 %27, 0
  br i1 %28, label %av_cmp_q.exit44.thread52, label %29

29:                                               ; preds = %11
  %30 = getelementptr inbounds nuw i8, ptr %4, i64 28
  %31 = load i64, ptr %30, align 4
  store i64 %31, ptr %18, align 8
  %32 = load i64, ptr %19, align 8
  %.sroa.011.0.extract.trunc.i = trunc i64 %32 to i32
  %.sroa.0.0.extract.trunc.i = trunc i64 %31 to i32
  %sext.i = shl i64 %32, 32
  %33 = ashr exact i64 %sext.i, 32
  %34 = ashr i64 %31, 32
  %35 = mul nsw i64 %33, %34
  %sext20.i = shl i64 %31, 32
  %36 = ashr exact i64 %sext20.i, 32
  %37 = ashr i64 %32, 32
  %38 = mul nsw i64 %37, %36
  %.not.i = icmp eq i64 %35, %38
  %39 = lshr i64 %32, 32
  %40 = trunc nuw i64 %39 to i32
  br i1 %.not.i, label %41, label %av_cmp_q.exit.thread

41:                                               ; preds = %29
  %42 = icmp ugt i64 %31, 4294967295
  %43 = icmp ugt i64 %32, 4294967295
  %or.cond.i = and i1 %42, %43
  br i1 %or.cond.i, label %av_cmp_q.exit.thread47, label %44

44:                                               ; preds = %41
  %45 = icmp ne i32 %.sroa.011.0.extract.trunc.i, 0
  %46 = icmp ne i32 %.sroa.0.0.extract.trunc.i, 0
  %or.cond5.i = and i1 %46, %45
  %.not.unshifted = xor i32 %.sroa.011.0.extract.trunc.i, %.sroa.0.0.extract.trunc.i
  %.not = icmp sgt i32 %.not.unshifted, -1
  %or.cond = and i1 %or.cond5.i, %.not
  br i1 %or.cond, label %av_cmp_q.exit.thread47, label %av_cmp_q.exit.thread

av_cmp_q.exit.thread47:                           ; preds = %44, %41
  %47 = load ptr, ptr %5, align 8, !tbaa !59
  %48 = getelementptr inbounds nuw i8, ptr %47, i64 8
  %49 = load ptr, ptr %48, align 8, !tbaa !60
  %50 = getelementptr inbounds nuw i8, ptr %49, i64 96
  %51 = load i64, ptr %50, align 8
  %.sroa.011.0.extract.trunc.i35 = trunc i64 %51 to i32
  %sext.i37 = shl i64 %51, 32
  %52 = ashr exact i64 %sext.i37, 32
  %53 = mul nsw i64 %52, %34
  %54 = ashr i64 %51, 32
  %55 = mul nsw i64 %54, %36
  %.not.i39 = icmp eq i64 %53, %55
  br i1 %.not.i39, label %56, label %av_cmp_q.exit.thread

56:                                               ; preds = %av_cmp_q.exit.thread47
  %57 = icmp ugt i64 %51, 4294967295
  %or.cond.i41 = and i1 %42, %57
  br i1 %or.cond.i41, label %av_cmp_q.exit44.thread52, label %58

58:                                               ; preds = %56
  %59 = icmp ne i32 %.sroa.011.0.extract.trunc.i35, 0
  %60 = icmp ne i32 %.sroa.0.0.extract.trunc.i, 0
  %or.cond5.i42 = and i1 %60, %59
  %.not34.unshifted = xor i32 %.sroa.011.0.extract.trunc.i35, %.sroa.0.0.extract.trunc.i
  %.not34 = icmp sgt i32 %.not34.unshifted, -1
  %or.cond55 = and i1 %or.cond5.i42, %.not34
  br i1 %or.cond55, label %av_cmp_q.exit44.thread52, label %av_cmp_q.exit.thread

av_cmp_q.exit.thread:                             ; preds = %av_cmp_q.exit.thread47, %58, %29, %44
  %61 = load ptr, ptr %5, align 8, !tbaa !59
  %62 = getelementptr inbounds nuw i8, ptr %61, i64 8
  %63 = load ptr, ptr %62, align 8, !tbaa !60
  %64 = getelementptr inbounds nuw i8, ptr %63, i64 96
  %65 = load i32, ptr %64, align 8, !tbaa !107
  %66 = getelementptr inbounds nuw i8, ptr %63, i64 100
  %67 = load i32, ptr %66, align 4, !tbaa !108
  tail call void (ptr, i32, ptr, ...) @av_log(ptr noundef nonnull %2, i32 noundef 24, ptr noundef nonnull @.str.6, i32 noundef %.sroa.011.0.extract.trunc.i, i32 noundef %40, i32 noundef %65, i32 noundef %67) #14
  br label %av_cmp_q.exit44.thread52

av_cmp_q.exit44.thread52:                         ; preds = %58, %56, %av_cmp_q.exit.thread, %11, %1
  %.0 = phi i32 [ %9, %1 ], [ %27, %11 ], [ 0, %av_cmp_q.exit.thread ], [ 0, %56 ], [ 0, %58 ]
  ret i32 %.0
}